; Function Attrs: mustprogress nofree norecurse nosync nounwind sspstrong willreturn memory(argmem: read) uwtable
define internal range(i32 -2147483648, 2147483643) i32 @utf32be_mbc_enc_len(ptr noundef %0, ptr noundef %1, ptr readnone captures(none) %2) #2 {
  %4 = icmp ult ptr %1, %0
  br i1 %4, label %29, label %5

5:                                                ; preds = %3
  %6 = ptrtoint ptr %1 to i64
  %7 = ptrtoint ptr %0 to i64
  %8 = sub i64 %6, %7
  %9 = icmp slt i64 %8, 4
  br i1 %9, label %10, label %13

10:                                               ; preds = %5
  %11 = trunc i64 %8 to i32
  %12 = add i32 %11, -5
  br label %29

13:                                               ; preds = %5
  %14 = load i8, ptr %0, align 1, !tbaa !6
  %15 = zext i8 %14 to i32
  %16 = getelementptr inbounds nuw i8, ptr %0, i64 1
  %17 = load i8, ptr %16, align 1, !tbaa !6
  %18 = zext i8 %17 to i32
  %19 = shl nuw nsw i32 %15, 16
  %20 = shl nuw nsw i32 %18, 8
  %21 = or disjoint i32 %20, %19
  %22 = icmp samesign ult i32 %21, 4352
  br i1 %22, label %23, label %29

23:                                               ; preds = %13
  %24 = getelementptr inbounds nuw i8, ptr %0, i64 2
  %25 = load i8, ptr %24, align 1, !tbaa !6
  %26 = icmp eq i32 %21, 0
  %27 = and i8 %25, -8
  %28 = icmp eq i8 %27, -40
  %or.cond = and i1 %26, %28
  %spec.select = select i1 %or.cond, i32 -1, i32 4
  br label %29

29:                                               ; preds = %23, %13, %3, %10
  %.0 = phi i32 [ %12, %10 ], [ -1, %3 ], [ -1, %13 ], [ %spec.select, %23 ]
  ret i32 %.0
}